; Function Attrs: nounwind uwtable
define internal noundef ptr @array_array_clear(ptr noundef captures(none) %0, ptr readnone captures(none) %1) #0 {
  %3 = getelementptr inbounds nuw i8, ptr %0, i64 56
  %4 = load i64, ptr %3, align 8, !tbaa !83
  %5 = icmp sgt i64 %4, 0
  br i1 %5, label %6, label %8

6:                                                ; preds = %2
  %7 = getelementptr i8, ptr %0, i64 16
  %.val41.i.i = load i64, ptr %7, align 8, !tbaa !40
  %.not.i.i = icmp eq i64 %.val41.i.i, 0
  br i1 %.not.i.i, label %8, label %22

8:                                                ; preds = %6, %2
  %9 = getelementptr inbounds nuw i8, ptr %0, i64 32
  %10 = load i64, ptr %9, align 8, !tbaa !79
  %.not37.i.i = icmp slt i64 %10, 0
  br i1 %.not37.i.i, label %18, label %11

11:                                               ; preds = %8
  %12 = getelementptr i8, ptr %0, i64 16
  %.val40.i.i = load i64, ptr %12, align 8, !tbaa !40
  %13 = icmp slt i64 %.val40.i.i, 16
  br i1 %13, label %14, label %18

14:                                               ; preds = %11
  %15 = getelementptr inbounds nuw i8, ptr %0, i64 24
  %16 = load ptr, ptr %15, align 8, !tbaa !53
  %.not38.i.i = icmp eq ptr %16, null
  br i1 %.not38.i.i, label %18, label %17

17:                                               ; preds = %14
  store i64 0, ptr %12, align 8, !tbaa !40
  br label %array_array_clear_impl.exit

18:                                               ; preds = %14, %11, %8
  %19 = getelementptr inbounds nuw i8, ptr %0, i64 24
  %20 = load ptr, ptr %19, align 8, !tbaa !53
  tail call void @PyMem_Free(ptr noundef %20) #11
  %21 = getelementptr inbounds nuw i8, ptr %0, i64 16
  tail call void @llvm.memset.p0.i64(ptr noundef nonnull align 8 dereferenceable(24) %21, i8 0, i64 24, i1 false)
  br label %array_array_clear_impl.exit

22:                                               ; preds = %6
  %23 = load ptr, ptr @PyExc_BufferError, align 8, !tbaa !18
  tail call void @PyErr_SetString(ptr noundef %23, ptr noundef nonnull @.str.57) #11
  br label %array_array_clear_impl.exit

array_array_clear_impl.exit:                      ; preds = %17, %18, %22
  %24 = phi ptr [ null, %22 ], [ @_Py_NoneStruct, %17 ], [ @_Py_NoneStruct, %18 ]
  ret ptr %24
}